target datalayout = "e-m:e-p270:32:32-p271:32:32-p272:64:64-i64:64-i128:128-f80:128-n8:16:32:64-S128"
target triple = "x86_64-pc-linux-gnu"

%"class.zmq::stream_connecter_base_t" = type { %"class.zmq::own_t.base", %"class.zmq::io_object_t", ptr, i32, ptr, %"class.std::__cxx11::basic_string", ptr, i8, i8, i32, ptr }
%"class.zmq::own_t.base" = type <{ %"class.zmq::object_t.base", [4 x i8], %"struct.zmq::options_t", i8, [7 x i8], %"class.zmq::atomic_counter_t", i64, ptr, %"class.std::set.24", i32 }>
%"class.zmq::object_t.base" = type <{ ptr, ptr, i32 }>
%"struct.zmq::options_t" = type { i32, i32, i64, i8, [256 x i8], i32, i32, i32, i32, i32, i32, i32, i32, i8, %"struct.zmq::atomic_value_t", i32, i32, i32, i32, i32, i32, i64, i32, i32, i8, i32, i8, i8, i8, i8, i8, %"class.std::__cxx11::basic_string", %"class.std::__cxx11::basic_string", %"class.std::__cxx11::basic_string", i32, i32, i32, i32, %"class.std::vector", %"class.std::set", %"class.std::set", %"class.std::set.6", i32, i32, %"class.std::__cxx11::basic_string", %"class.std::__cxx11::basic_string", %"class.std::__cxx11::basic_string", [32 x i8], [32 x i8], [32 x i8], %"class.std::__cxx11::basic_string", %"class.std::__cxx11::basic_string", i32, i32, i8, i32, i8, i32, i8, i16, i32, i32, i32, %"class.std::__cxx11::basic_string", i8, i8, i8, i32, i32, i8, i32, %"class.std::map", i32, %"class.std::__cxx11::basic_string", %"class.std::__cxx11::basic_string", %"class.std::__cxx11::basic_string", %"class.std::__cxx11::basic_string", i8, %"class.std::vector.17", i8, %"class.std::vector.17", i8, %"class.std::vector.17", i8, i32, i8, i32, i32, i32, i32, i32, i8, i32 }
%"struct.zmq::atomic_value_t" = type { %"struct.std::atomic" }
%"struct.std::atomic" = type { %"struct.std::__atomic_base" }
%"struct.std::__atomic_base" = type { i32 }
%"class.std::vector" = type { %"struct.std::_Vector_base" }
%"struct.std::_Vector_base" = type { %"struct.std::_Vector_base<zmq::tcp_address_mask_t, std::allocator<zmq::tcp_address_mask_t>>::_Vector_impl" }
%"struct.std::_Vector_base<zmq::tcp_address_mask_t, std::allocator<zmq::tcp_address_mask_t>>::_Vector_impl" = type { %"struct.std::_Vector_base<zmq::tcp_address_mask_t, std::allocator<zmq::tcp_address_mask_t>>::_Vector_impl_data" }
%"struct.std::_Vector_base<zmq::tcp_address_mask_t, std::allocator<zmq::tcp_address_mask_t>>::_Vector_impl_data" = type { ptr, ptr, ptr }
%"class.std::set" = type { %"class.std::_Rb_tree" }
%"class.std::_Rb_tree" = type { %"struct.std::_Rb_tree<unsigned int, unsigned int, std::_Identity<unsigned int>, std::less<unsigned int>>::_Rb_tree_impl" }
%"struct.std::_Rb_tree<unsigned int, unsigned int, std::_Identity<unsigned int>, std::less<unsigned int>>::_Rb_tree_impl" = type { [8 x i8], %"struct.std::_Rb_tree_header" }
%"struct.std::_Rb_tree_header" = type { %"struct.std::_Rb_tree_node_base", i64 }
%"struct.std::_Rb_tree_node_base" = type { i32, ptr, ptr, ptr }
%"class.std::set.6" = type { %"class.std::_Rb_tree.7" }
%"class.std::_Rb_tree.7" = type { %"struct.std::_Rb_tree<int, int, std::_Identity<int>, std::less<int>>::_Rb_tree_impl" }
%"struct.std::_Rb_tree<int, int, std::_Identity<int>, std::less<int>>::_Rb_tree_impl" = type { [8 x i8], %"struct.std::_Rb_tree_header" }
%"class.std::map" = type { %"class.std::_Rb_tree.12" }
%"class.std::_Rb_tree.12" = type { %"struct.std::_Rb_tree<std::__cxx11::basic_string<char>, std::pair<const std::__cxx11::basic_string<char>, std::__cxx11::basic_string<char>>, std::_Select1st<std::pair<const std::__cxx11::basic_string<char>, std::__cxx11::basic_string<char>>>, std::less<std::__cxx11::basic_string<char>>>::_Rb_tree_impl" }
%"struct.std::_Rb_tree<std::__cxx11::basic_string<char>, std::pair<const std::__cxx11::basic_string<char>, std::__cxx11::basic_string<char>>, std::_Select1st<std::pair<const std::__cxx11::basic_string<char>, std::__cxx11::basic_string<char>>>, std::less<std::__cxx11::basic_string<char>>>::_Rb_tree_impl" = type { [8 x i8], %"struct.std::_Rb_tree_header" }
%"class.std::vector.17" = type { %"struct.std::_Vector_base.18" }
%"struct.std::_Vector_base.18" = type { %"struct.std::_Vector_base<unsigned char, std::allocator<unsigned char>>::_Vector_impl" }
%"struct.std::_Vector_base<unsigned char, std::allocator<unsigned char>>::_Vector_impl" = type { %"struct.std::_Vector_base<unsigned char, std::allocator<unsigned char>>::_Vector_impl_data" }
%"struct.std::_Vector_base<unsigned char, std::allocator<unsigned char>>::_Vector_impl_data" = type { ptr, ptr, ptr }
%"class.zmq::atomic_counter_t" = type { %"struct.std::atomic.22", [4 x i8] }
%"struct.std::atomic.22" = type { %"struct.std::__atomic_base.23" }
%"struct.std::__atomic_base.23" = type { i32 }
%"class.std::set.24" = type { %"class.std::_Rb_tree.25" }
%"class.std::_Rb_tree.25" = type { %"struct.std::_Rb_tree<zmq::own_t *, zmq::own_t *, std::_Identity<zmq::own_t *>, std::less<zmq::own_t *>>::_Rb_tree_impl" }
%"struct.std::_Rb_tree<zmq::own_t *, zmq::own_t *, std::_Identity<zmq::own_t *>, std::less<zmq::own_t *>>::_Rb_tree_impl" = type { [8 x i8], %"struct.std::_Rb_tree_header" }
%"class.zmq::io_object_t" = type { %"struct.zmq::i_poll_events", ptr }
%"struct.zmq::i_poll_events" = type { ptr }
%"class.std::__cxx11::basic_string" = type { %"struct.std::__cxx11::basic_string<char>::_Alloc_hider", i64, %union.anon }
%"struct.std::__cxx11::basic_string<char>::_Alloc_hider" = type { ptr }
%union.anon = type { i64, [8 x i8] }

@stderr = external global ptr, align 8
@.str.2 = private unnamed_addr constant [113 x i8] c"generated/home/dtcxzyw/WorkSpace/Projects/compilers/llvm-opt-benchmark/bench/libzmq/libzmq/src/tcp_connecter.cpp\00", align 1
@.str.8 = private unnamed_addr constant [12 x i8] c"%s (%s:%d)\0A\00", align 1

; Function Attrs: mustprogress uwtable
define noundef i32 @_ZN3zmq15tcp_connecter_t7connectEv(ptr noundef nonnull align 8 dereferenceable(1552) %0) #0 align 2 {
  %2 = alloca i32, align 4
  %3 = alloca ptr, align 8
  %4 = alloca i32, align 4
  %5 = alloca i32, align 4
  %6 = alloca i32, align 4
  %7 = alloca ptr, align 8
  %8 = alloca i32, align 4
  %9 = alloca i32, align 4
  store ptr %0, ptr %3, align 8, !tbaa !3
  %10 = load ptr, ptr %3, align 8
  call void @llvm.lifetime.start.p0(i64 4, ptr %4) #14
  store i32 0, ptr %4, align 4, !tbaa !85
  call void @llvm.lifetime.start.p0(i64 4, ptr %5) #14
  store i32 4, ptr %5, align 4, !tbaa !85
  call void @llvm.lifetime.start.p0(i64 4, ptr %6) #14
  %11 = getelementptr inbounds nuw %"class.zmq::stream_connecter_base_t", ptr %10, i32 0, i32 3
  %12 = load i32, ptr %11, align 8, !tbaa !88
  %13 = call i32 @getsockopt(i32 noundef %12, i32 noundef 1, i32 noundef 4, ptr noundef %4, ptr noundef %5) #14
  store i32 %13, ptr %6, align 4, !tbaa !85
  %14 = load i32, ptr %6, align 4, !tbaa !85
  %15 = icmp eq i32 %14, -1
  br i1 %15, label %16, label %19

16:                                               ; preds = %1
  %17 = call ptr @__errno_location() #17
  %18 = load i32, ptr %17, align 4, !tbaa !85
  store i32 %18, ptr %4, align 4, !tbaa !85
  br label %19

19:                                               ; preds = %16, %1
  %20 = load i32, ptr %4, align 4, !tbaa !85
  %21 = icmp ne i32 %20, 0
  br i1 %21, label %22, label %60

22:                                               ; preds = %19
  %23 = load i32, ptr %4, align 4, !tbaa !85
  %24 = call ptr @__errno_location() #17
  store i32 %23, ptr %24, align 4, !tbaa !85
  br label %25

25:                                               ; preds = %22
  %26 = call ptr @__errno_location() #17
  %27 = load i32, ptr %26, align 4, !tbaa !85
  %28 = icmp ne i32 %27, 9
  br i1 %28, label %29, label %41

29:                                               ; preds = %25
  %30 = call ptr @__errno_location() #17
  %31 = load i32, ptr %30, align 4, !tbaa !85
  %32 = icmp ne i32 %31, 92
  br i1 %32, label %33, label %41

33:                                               ; preds = %29
  %34 = call ptr @__errno_location() #17
  %35 = load i32, ptr %34, align 4, !tbaa !85
  %36 = icmp ne i32 %35, 88
  br i1 %36, label %37, label %41

37:                                               ; preds = %33
  %38 = call ptr @__errno_location() #17
  %39 = load i32, ptr %38, align 4, !tbaa !85
  %40 = icmp ne i32 %39, 105
  br label %41

41:                                               ; preds = %37, %33, %29, %25
  %42 = phi i1 [ false, %33 ], [ false, %29 ], [ false, %25 ], [ %40, %37 ]
  %43 = xor i1 %42, true
  %44 = zext i1 %43 to i64
  %45 = call i64 @llvm.expect.i64(i64 %44, i64 0)
  %46 = icmp ne i64 %45, 0
  br i1 %46, label %47, label %57

47:                                               ; preds = %41
  call void @llvm.lifetime.start.p0(i64 8, ptr %7) #14
  %48 = call ptr @__errno_location() #17
  %49 = load i32, ptr %48, align 4, !tbaa !85
  %50 = call ptr @strerror(i32 noundef %49) #14
  store ptr %50, ptr %7, align 8, !tbaa !84
  %51 = load ptr, ptr @stderr, align 8, !tbaa !80
  %52 = load ptr, ptr %7, align 8, !tbaa !84
  %53 = call i32 (ptr, ptr, ...) @fprintf(ptr noundef %51, ptr noundef @.str.8, ptr noundef %52, ptr noundef @.str.2, i32 noundef 263) #14
  %54 = load ptr, ptr @stderr, align 8, !tbaa !80
  %55 = call i32 @fflush(ptr noundef %54)
  %56 = load ptr, ptr %7, align 8, !tbaa !84
  call void @_ZN3zmq9zmq_abortEPKc(ptr noundef %56)
  call void @llvm.lifetime.end.p0(i64 8, ptr %7) #14
  br label %57

57:                                               ; preds = %47, %41
  br label %58

58:                                               ; preds = %57
  br label %59

59:                                               ; preds = %58
  store i32 -1, ptr %2, align 4
  store i32 1, ptr %8, align 4
  br label %65

60:                                               ; preds = %19
  call void @llvm.lifetime.start.p0(i64 4, ptr %9) #14
  %61 = getelementptr inbounds nuw %"class.zmq::stream_connecter_base_t", ptr %10, i32 0, i32 3
  %62 = load i32, ptr %61, align 8, !tbaa !88
  store i32 %62, ptr %9, align 4, !tbaa !85
  %63 = getelementptr inbounds nuw %"class.zmq::stream_connecter_base_t", ptr %10, i32 0, i32 3
  store i32 -1, ptr %63, align 8, !tbaa !88
  %64 = load i32, ptr %9, align 4, !tbaa !85
  store i32 %64, ptr %2, align 4
  store i32 1, ptr %8, align 4
  call void @llvm.lifetime.end.p0(i64 4, ptr %9) #14
  br label %65

65:                                               ; preds = %60, %59
  call void @llvm.lifetime.end.p0(i64 4, ptr %6) #14
  call void @llvm.lifetime.end.p0(i64 4, ptr %5) #14
  call void @llvm.lifetime.end.p0(i64 4, ptr %4) #14
  %66 = load i32, ptr %2, align 4
  ret i32 %66
}