; Function Attrs: mustprogress uwtable
define noundef i32 @_ZN3zmq15tcp_connecter_t7connectEv(ptr noundef nonnull align 8 captures(none) dereferenceable(1552) %0) local_unnamed_addr #0 align 2 {
  %2 = alloca i32, align 4
  %3 = alloca i32, align 4
  call void @llvm.lifetime.start.p0(i64 4, ptr nonnull %2) #16
  store i32 0, ptr %2, align 4, !tbaa !76
  call void @llvm.lifetime.start.p0(i64 4, ptr nonnull %3) #16
  store i32 4, ptr %3, align 4, !tbaa !76
  %4 = getelementptr inbounds nuw i8, ptr %0, i64 1472
  %5 = load i32, ptr %4, align 8, !tbaa !90
  %6 = call i32 @getsockopt(i32 noundef %5, i32 noundef 1, i32 noundef 4, ptr noundef nonnull %2, ptr noundef nonnull %3) #16
  %7 = icmp eq i32 %6, -1
  br i1 %7, label %8, label %thread-pre-split

8:                                                ; preds = %1
  %9 = tail call ptr @__errno_location() #20
  %10 = load i32, ptr %9, align 4, !tbaa !76
  store i32 %10, ptr %2, align 4, !tbaa !76
  br label %11

thread-pre-split:                                 ; preds = %1
  %.pr = load i32, ptr %2, align 4, !tbaa !76
  br label %11

11:                                               ; preds = %thread-pre-split, %8
  %12 = phi i32 [ %.pr, %thread-pre-split ], [ %10, %8 ]
  %.not = icmp eq i32 %12, 0
  br i1 %.not, label %20, label %13

13:                                               ; preds = %11
  %14 = tail call ptr @__errno_location() #20
  store i32 %12, ptr %14, align 4, !tbaa !76
  switch i32 %12, label %22 [
    i32 9, label %.critedge
    i32 92, label %.critedge
    i32 88, label %.critedge
    i32 105, label %.critedge
  ], !prof !91

.critedge:                                        ; preds = %13, %13, %13, %13
  %15 = call ptr @strerror(i32 noundef %12) #16
  %16 = load ptr, ptr @stderr, align 8, !tbaa !70
  %17 = call i32 (ptr, ptr, ...) @fprintf(ptr noundef %16, ptr noundef nonnull @.str.8, ptr noundef %15, ptr noundef nonnull @.str.2, i32 noundef 263) #17
  %18 = load ptr, ptr @stderr, align 8, !tbaa !70
  %19 = call i32 @fflush(ptr noundef %18)
  call void @_ZN3zmq9zmq_abortEPKc(ptr noundef %15)
  br label %22

20:                                               ; preds = %11
  %21 = load i32, ptr %4, align 8, !tbaa !90
  store i32 -1, ptr %4, align 8, !tbaa !90
  br label %22

22:                                               ; preds = %13, %.critedge, %20
  %.0 = phi i32 [ %21, %20 ], [ -1, %.critedge ], [ -1, %13 ]
  call void @llvm.lifetime.end.p0(i64 4, ptr nonnull %3) #16
  call void @llvm.lifetime.end.p0(i64 4, ptr nonnull %2) #16
  ret i32 %.0
}